; ModuleID = '33/1665.c'
source_filename = "33/1665.c"
target datalayout = "e-m:e-p270:32:32-p271:32:32-p272:64:64-i64:64-f80:128-n8:16:32:64-S128"
target triple = "x86_64-pc-linux-gnu"

@.str = private unnamed_addr constant [3 x i8] c"%d\00", align 1
@.str.1 = private unnamed_addr constant [3 x i8] c"%s\00", align 1
@.str.2 = private unnamed_addr constant [4 x i8] c"%s\0A\00", align 1

; Function Attrs: noinline nounwind uwtable
define dso_local i32 @main() #0 {
  %1 = alloca i32, align 4
  %2 = alloca i32, align 4
  %3 = alloca i32, align 4
  %4 = alloca i32, align 4
  %5 = alloca i8*, align 8
  %6 = alloca i64, align 8
  %7 = alloca i64, align 8
  store i32 0, i32* %1, align 4
  %8 = call i32 (i8*, ...) @__isoc99_scanf(i8* getelementptr inbounds ([3 x i8], [3 x i8]* @.str, i64 0, i64 0), i32* %2)
  %9 = load i32, i32* %2, align 4
  %10 = zext i32 %9 to i64
  %11 = call i8* @llvm.stacksave()
  store i8* %11, i8** %5, align 8
  %12 = alloca [256 x i8], i64 %10, align 16
  store i64 %10, i64* %6, align 8
  %13 = load i32, i32* %2, align 4
  %14 = zext i32 %13 to i64
  %15 = alloca [256 x i8], i64 %14, align 16
  store i64 %14, i64* %7, align 8
  store i32 0, i32* %3, align 4
  br label %16

16:                                               ; preds = %26, %0
  %17 = load i32, i32* %3, align 4
  %18 = load i32, i32* %2, align 4
  %19 = icmp slt i32 %17, %18
  br i1 %19, label %20, label %29

20:                                               ; preds = %16
  %21 = load i32, i32* %3, align 4
  %22 = sext i32 %21 to i64
  %23 = getelementptr inbounds [256 x i8], [256 x i8]* %12, i64 %22
  %24 = getelementptr inbounds [256 x i8], [256 x i8]* %23, i64 0, i64 0
  %25 = call i32 (i8*, ...) @__isoc99_scanf(i8* getelementptr inbounds ([3 x i8], [3 x i8]* @.str.1, i64 0, i64 0), i8* %24)
  br label %26

26:                                               ; preds = %20
  %27 = load i32, i32* %3, align 4
  %28 = add nsw i32 %27, 1
  store i32 %28, i32* %3, align 4
  br label %16

29:                                               ; preds = %16
  store i32 0, i32* %3, align 4
  br label %30

30:                                               ; preds = %114, %29
  %31 = load i32, i32* %3, align 4
  %32 = load i32, i32* %2, align 4
  %33 = icmp slt i32 %31, %32
  br i1 %33, label %34, label %117

34:                                               ; preds = %30
  store i32 0, i32* %4, align 4
  br label %35

35:                                               ; preds = %110, %34
  %36 = load i32, i32* %4, align 4
  %37 = icmp slt i32 %36, 255
  br i1 %37, label %38, label %113

38:                                               ; preds = %35
  %39 = load i32, i32* %3, align 4
  %40 = sext i32 %39 to i64
  %41 = getelementptr inbounds [256 x i8], [256 x i8]* %12, i64 %40
  %42 = load i32, i32* %4, align 4
  %43 = sext i32 %42 to i64
  %44 = getelementptr inbounds [256 x i8], [256 x i8]* %41, i64 0, i64 %43
  %45 = load i8, i8* %44, align 1
  %46 = sext i8 %45 to i32
  %47 = icmp eq i32 %46, 65
  br i1 %47, label %48, label %55

48:                                               ; preds = %38
  %49 = load i32, i32* %3, align 4
  %50 = sext i32 %49 to i64
  %51 = getelementptr inbounds [256 x i8], [256 x i8]* %15, i64 %50
  %52 = load i32, i32* %4, align 4
  %53 = sext i32 %52 to i64
  %54 = getelementptr inbounds [256 x i8], [256 x i8]* %51, i64 0, i64 %53
  store i8 84, i8* %54, align 1
  br label %109

55:                                               ; preds = %38
  %56 = load i32, i32* %3, align 4
  %57 = sext i32 %56 to i64
  %58 = getelementptr inbounds [256 x i8], [256 x i8]* %12, i64 %57
  %59 = load i32, i32* %4, align 4
  %60 = sext i32 %59 to i64
  %61 = getelementptr inbounds [256 x i8], [256 x i8]* %58, i64 0, i64 %60
  %62 = load i8, i8* %61, align 1
  %63 = sext i8 %62 to i32
  %64 = icmp eq i32 %63, 84
  br i1 %64, label %65, label %72

65:                                               ; preds = %55
  %66 = load i32, i32* %3, align 4
  %67 = sext i32 %66 to i64
  %68 = getelementptr inbounds [256 x i8], [256 x i8]* %15, i64 %67
  %69 = load i32, i32* %4, align 4
  %70 = sext i32 %69 to i64
  %71 = getelementptr inbounds [256 x i8], [256 x i8]* %68, i64 0, i64 %70
  store i8 65, i8* %71, align 1
  br label %108

72:                                               ; preds = %55
  %73 = load i32, i32* %3, align 4
  %74 = sext i32 %73 to i64
  %75 = getelementptr inbounds [256 x i8], [256 x i8]* %12, i64 %74
  %76 = load i32, i32* %4, align 4
  %77 = sext i32 %76 to i64
  %78 = getelementptr inbounds [256 x i8], [256 x i8]* %75, i64 0, i64 %77
  %79 = load i8, i8* %78, align 1
  %80 = sext i8 %79 to i32
  %81 = icmp eq i32 %80, 67
  br i1 %81, label %82, label %89

82:                                               ; preds = %72
  %83 = load i32, i32* %3, align 4
  %84 = sext i32 %83 to i64
  %85 = getelementptr inbounds [256 x i8], [256 x i8]* %15, i64 %84
  %86 = load i32, i32* %4, align 4
  %87 = sext i32 %86 to i64
  %88 = getelementptr inbounds [256 x i8], [256 x i8]* %85, i64 0, i64 %87
  store i8 71, i8* %88, align 1
  br label %107

89:                                               ; preds = %72
  %90 = load i32, i32* %3, align 4
  %91 = sext i32 %90 to i64
  %92 = getelementptr inbounds [256 x i8], [256 x i8]* %12, i64 %91
  %93 = load i32, i32* %4, align 4
  %94 = sext i32 %93 to i64
  %95 = getelementptr inbounds [256 x i8], [256 x i8]* %92, i64 0, i64 %94
  %96 = load i8, i8* %95, align 1
  %97 = sext i8 %96 to i32
  %98 = icmp eq i32 %97, 71
  br i1 %98, label %99, label %106

99:                                               ; preds = %89
  %100 = load i32, i32* %3, align 4
  %101 = sext i32 %100 to i64
  %102 = getelementptr inbounds [256 x i8], [256 x i8]* %15, i64 %101
  %103 = load i32, i32* %4, align 4
  %104 = sext i32 %103 to i64
  %105 = getelementptr inbounds [256 x i8], [256 x i8]* %102, i64 0, i64 %104
  store i8 67, i8* %105, align 1
  br label %106

106:                                              ; preds = %99, %89
  br label %107

107:                                              ; preds = %106, %82
  br label %108

108:                                              ; preds = %107, %65
  br label %109

109:                                              ; preds = %108, %48
  br label %110

110:                                              ; preds = %109
  %111 = load i32, i32* %4, align 4
  %112 = add nsw i32 %111, 1
  store i32 %112, i32* %4, align 4
  br label %35

113:                                              ; preds = %35
  br label %114

114:                                              ; preds = %113
  %115 = load i32, i32* %3, align 4
  %116 = add nsw i32 %115, 1
  store i32 %116, i32* %3, align 4
  br label %30

117:                                              ; preds = %30
  store i32 0, i32* %3, align 4
  br label %118

118:                                              ; preds = %129, %117
  %119 = load i32, i32* %3, align 4
  %120 = load i32, i32* %2, align 4
  %121 = sub nsw i32 %120, 1
  %122 = icmp slt i32 %119, %121
  br i1 %122, label %123, label %132

123:                                              ; preds = %118
  %124 = load i32, i32* %3, align 4
  %125 = sext i32 %124 to i64
  %126 = getelementptr inbounds [256 x i8], [256 x i8]* %15, i64 %125
  %127 = getelementptr inbounds [256 x i8], [256 x i8]* %126, i64 0, i64 0
  %128 = call i32 (i8*, ...) @printf(i8* getelementptr inbounds ([4 x i8], [4 x i8]* @.str.2, i64 0, i64 0), i8* %127)
  br label %129

129:                                              ; preds = %123
  %130 = load i32, i32* %3, align 4
  %131 = add nsw i32 %130, 1
  store i32 %131, i32* %3, align 4
  br label %118

132:                                              ; preds = %118
  %133 = load i32, i32* %2, align 4
  %134 = sub nsw i32 %133, 1
  %135 = sext i32 %134 to i64
  %136 = getelementptr inbounds [256 x i8], [256 x i8]* %15, i64 %135
  %137 = getelementptr inbounds [256 x i8], [256 x i8]* %136, i64 0, i64 0
  %138 = call i32 (i8*, ...) @printf(i8* getelementptr inbounds ([3 x i8], [3 x i8]* @.str.1, i64 0, i64 0), i8* %137)
  store i32 0, i32* %1, align 4
  %139 = load i8*, i8** %5, align 8
  call void @llvm.stackrestore(i8* %139)
  %140 = load i32, i32* %1, align 4
  ret i32 %140
}

declare dso_local i32 @__isoc99_scanf(i8*, ...) #1

; Function Attrs: nounwind
declare i8* @llvm.stacksave() #2

declare dso_local i32 @printf(i8*, ...) #1

; Function Attrs: nounwind
declare void @llvm.stackrestore(i8*) #2


!llvm.module.flags = !{!0}
!llvm.ident = !{!1}

!0 = !{i32 1, !"wchar_size", i32 4}
!1 = !{!"clang version 10.0.0-4ubuntu1 "}
